target datalayout = "e-m:e-p270:32:32-p271:32:32-p272:64:64-i64:64-i128:128-f80:128-n8:16:32:64-S128"
target triple = "x86_64-pc-linux-gnu"

; Function Attrs: nounwind uwtable
define hidden void @mlib_ImageCopy_bit_al(ptr noundef %0, ptr noundef %1, i32 noundef %2, i32 noundef %3) #0 {
  %5 = alloca ptr, align 8
  %6 = alloca ptr, align 8
  %7 = alloca i32, align 4
  %8 = alloca i32, align 4
  %9 = alloca i32, align 4
  %10 = alloca i32, align 4
  %11 = alloca i32, align 4
  %12 = alloca ptr, align 8
  %13 = alloca ptr, align 8
  %14 = alloca i8, align 1
  %15 = alloca i8, align 1
  %16 = alloca i8, align 1
  %17 = alloca ptr, align 8
  %18 = alloca ptr, align 8
  %19 = alloca i64, align 8
  %20 = alloca i64, align 8
  %21 = alloca i32, align 4
  %22 = alloca i32, align 4
  store ptr %0, ptr %5, align 8
  store ptr %1, ptr %6, align 8
  store i32 %2, ptr %7, align 4
  store i32 %3, ptr %8, align 4
  store i8 -1, ptr %14, align 1
  %23 = load i32, ptr %7, align 4
  %24 = icmp sle i32 %23, 0
  br i1 %24, label %25, label %26

25:                                               ; preds = %4
  br label %267

26:                                               ; preds = %4
  %27 = load i32, ptr %7, align 4
  %28 = load i32, ptr %8, align 4
  %29 = sub nsw i32 8, %28
  %30 = icmp sle i32 %27, %29
  br i1 %30, label %31, label %63

31:                                               ; preds = %26
  %32 = load i8, ptr %14, align 1
  %33 = zext i8 %32 to i32
  %34 = load i32, ptr %7, align 4
  %35 = sub nsw i32 8, %34
  %36 = shl i32 %33, %35
  %37 = trunc i32 %36 to i8
  store i8 %37, ptr %16, align 1
  %38 = load i32, ptr %8, align 4
  %39 = load i8, ptr %16, align 1
  %40 = zext i8 %39 to i32
  %41 = ashr i32 %40, %38
  %42 = trunc i32 %41 to i8
  store i8 %42, ptr %16, align 1
  %43 = load ptr, ptr %6, align 8
  %44 = getelementptr inbounds i8, ptr %43, i64 0
  %45 = load i8, ptr %44, align 1
  store i8 %45, ptr %15, align 1
  %46 = load i8, ptr %15, align 1
  %47 = zext i8 %46 to i32
  %48 = load i8, ptr %16, align 1
  %49 = zext i8 %48 to i32
  %50 = xor i32 %49, -1
  %51 = and i32 %47, %50
  %52 = load ptr, ptr %5, align 8
  %53 = getelementptr inbounds i8, ptr %52, i64 0
  %54 = load i8, ptr %53, align 1
  %55 = zext i8 %54 to i32
  %56 = load i8, ptr %16, align 1
  %57 = zext i8 %56 to i32
  %58 = and i32 %55, %57
  %59 = or i32 %51, %58
  %60 = trunc i32 %59 to i8
  %61 = load ptr, ptr %6, align 8
  %62 = getelementptr inbounds i8, ptr %61, i64 0
  store i8 %60, ptr %62, align 1
  br label %267

63:                                               ; preds = %26
  %64 = load i8, ptr %14, align 1
  %65 = zext i8 %64 to i32
  %66 = load i32, ptr %8, align 4
  %67 = ashr i32 %65, %66
  %68 = trunc i32 %67 to i8
  store i8 %68, ptr %16, align 1
  %69 = load ptr, ptr %6, align 8
  %70 = getelementptr inbounds i8, ptr %69, i64 0
  %71 = load i8, ptr %70, align 1
  store i8 %71, ptr %15, align 1
  %72 = load i8, ptr %15, align 1
  %73 = zext i8 %72 to i32
  %74 = load i8, ptr %16, align 1
  %75 = zext i8 %74 to i32
  %76 = xor i32 %75, -1
  %77 = and i32 %73, %76
  %78 = load ptr, ptr %5, align 8
  %79 = getelementptr inbounds i8, ptr %78, i64 0
  %80 = load i8, ptr %79, align 1
  %81 = zext i8 %80 to i32
  %82 = load i8, ptr %16, align 1
  %83 = zext i8 %82 to i32
  %84 = and i32 %81, %83
  %85 = or i32 %77, %84
  %86 = trunc i32 %85 to i8
  %87 = load ptr, ptr %6, align 8
  %88 = getelementptr inbounds i8, ptr %87, i64 0
  store i8 %86, ptr %88, align 1
  %89 = load ptr, ptr %6, align 8
  %90 = getelementptr inbounds i8, ptr %89, i32 1
  store ptr %90, ptr %6, align 8
  %91 = load ptr, ptr %5, align 8
  %92 = getelementptr inbounds i8, ptr %91, i32 1
  store ptr %92, ptr %5, align 8
  %93 = load i32, ptr %7, align 4
  %94 = sub nsw i32 %93, 8
  %95 = load i32, ptr %8, align 4
  %96 = add nsw i32 %94, %95
  store i32 %96, ptr %7, align 4
  %97 = load i32, ptr %7, align 4
  %98 = ashr i32 %97, 3
  store i32 %98, ptr %9, align 4
  store i32 0, ptr %11, align 4
  br label %99

99:                                               ; preds = %116, %63
  %100 = load i32, ptr %11, align 4
  %101 = load i32, ptr %9, align 4
  %102 = icmp slt i32 %100, %101
  br i1 %102, label %103, label %108

103:                                              ; preds = %99
  %104 = load ptr, ptr %6, align 8
  %105 = ptrtoint ptr %104 to i64
  %106 = and i64 %105, 7
  %107 = icmp ne i64 %106, 0
  br label %108

108:                                              ; preds = %103, %99
  %109 = phi i1 [ false, %99 ], [ %107, %103 ]
  br i1 %109, label %110, label %119

110:                                              ; preds = %108
  %111 = load ptr, ptr %5, align 8
  %112 = getelementptr inbounds i8, ptr %111, i32 1
  store ptr %112, ptr %5, align 8
  %113 = load i8, ptr %111, align 1
  %114 = load ptr, ptr %6, align 8
  %115 = getelementptr inbounds i8, ptr %114, i32 1
  store ptr %115, ptr %6, align 8
  store i8 %113, ptr %114, align 1
  br label %116

116:                                              ; preds = %110
  %117 = load i32, ptr %11, align 4
  %118 = add nsw i32 %117, 1
  store i32 %118, ptr %11, align 4
  br label %99, !llvm.loop !15

119:                                              ; preds = %108
  %120 = load ptr, ptr %5, align 8
  %121 = ptrtoint ptr %120 to i64
  %122 = load ptr, ptr %6, align 8
  %123 = ptrtoint ptr %122 to i64
  %124 = xor i64 %121, %123
  %125 = and i64 %124, 7
  %126 = icmp eq i64 %125, 0
  br i1 %126, label %127, label %161

127:                                              ; preds = %119
  %128 = load ptr, ptr %5, align 8
  store ptr %128, ptr %12, align 8
  %129 = load ptr, ptr %6, align 8
  store ptr %129, ptr %13, align 8
  store i32 0, ptr %10, align 4
  br label %130

130:                                              ; preds = %145, %127
  %131 = load i32, ptr %11, align 4
  %132 = load i32, ptr %9, align 4
  %133 = sub nsw i32 %132, 8
  %134 = icmp sle i32 %131, %133
  br i1 %134, label %135, label %150

135:                                              ; preds = %130
  %136 = load ptr, ptr %12, align 8
  %137 = load i32, ptr %10, align 4
  %138 = sext i32 %137 to i64
  %139 = getelementptr inbounds double, ptr %136, i64 %138
  %140 = load double, ptr %139, align 8
  %141 = load ptr, ptr %13, align 8
  %142 = load i32, ptr %10, align 4
  %143 = sext i32 %142 to i64
  %144 = getelementptr inbounds double, ptr %141, i64 %143
  store double %140, ptr %144, align 8
  br label %145

145:                                              ; preds = %135
  %146 = load i32, ptr %11, align 4
  %147 = add nsw i32 %146, 8
  store i32 %147, ptr %11, align 4
  %148 = load i32, ptr %10, align 4
  %149 = add nsw i32 %148, 1
  store i32 %149, ptr %10, align 4
  br label %130, !llvm.loop !16

150:                                              ; preds = %130
  %151 = load i32, ptr %10, align 4
  %152 = shl i32 %151, 3
  %153 = load ptr, ptr %5, align 8
  %154 = sext i32 %152 to i64
  %155 = getelementptr inbounds i8, ptr %153, i64 %154
  store ptr %155, ptr %5, align 8
  %156 = load i32, ptr %10, align 4
  %157 = shl i32 %156, 3
  %158 = load ptr, ptr %6, align 8
  %159 = sext i32 %157 to i64
  %160 = getelementptr inbounds i8, ptr %158, i64 %159
  store ptr %160, ptr %6, align 8
  br label %221

161:                                              ; preds = %119
  %162 = load ptr, ptr %5, align 8
  %163 = ptrtoint ptr %162 to i64
  %164 = and i64 %163, 7
  %165 = trunc i64 %164 to i32
  store i32 %165, ptr %21, align 4
  %166 = load ptr, ptr %6, align 8
  store ptr %166, ptr %18, align 8
  %167 = load ptr, ptr %5, align 8
  %168 = load i32, ptr %21, align 4
  %169 = sext i32 %168 to i64
  %170 = sub i64 0, %169
  %171 = getelementptr inbounds i8, ptr %167, i64 %170
  store ptr %171, ptr %17, align 8
  %172 = load i32, ptr %21, align 4
  %173 = shl i32 %172, 3
  store i32 %173, ptr %21, align 4
  %174 = load i32, ptr %21, align 4
  %175 = sub nsw i32 64, %174
  store i32 %175, ptr %22, align 4
  %176 = load ptr, ptr %17, align 8
  %177 = getelementptr inbounds i64, ptr %176, i64 0
  %178 = load i64, ptr %177, align 8
  store i64 %178, ptr %20, align 8
  store i32 0, ptr %10, align 4
  br label %179

179:                                              ; preds = %205, %161
  %180 = load i32, ptr %11, align 4
  %181 = load i32, ptr %9, align 4
  %182 = sub nsw i32 %181, 8
  %183 = icmp sle i32 %180, %182
  br i1 %183, label %184, label %210

184:                                              ; preds = %179
  %185 = load i64, ptr %20, align 8
  store i64 %185, ptr %19, align 8
  %186 = load ptr, ptr %17, align 8
  %187 = load i32, ptr %10, align 4
  %188 = add nsw i32 %187, 1
  %189 = sext i32 %188 to i64
  %190 = getelementptr inbounds i64, ptr %186, i64 %189
  %191 = load i64, ptr %190, align 8
  store i64 %191, ptr %20, align 8
  %192 = load i64, ptr %19, align 8
  %193 = load i32, ptr %21, align 4
  %194 = zext i32 %193 to i64
  %195 = shl i64 %192, %194
  %196 = load i64, ptr %20, align 8
  %197 = load i32, ptr %22, align 4
  %198 = zext i32 %197 to i64
  %199 = lshr i64 %196, %198
  %200 = or i64 %195, %199
  %201 = load ptr, ptr %18, align 8
  %202 = load i32, ptr %10, align 4
  %203 = sext i32 %202 to i64
  %204 = getelementptr inbounds i64, ptr %201, i64 %203
  store i64 %200, ptr %204, align 8
  br label %205

205:                                              ; preds = %184
  %206 = load i32, ptr %11, align 4
  %207 = add nsw i32 %206, 8
  store i32 %207, ptr %11, align 4
  %208 = load i32, ptr %10, align 4
  %209 = add nsw i32 %208, 1
  store i32 %209, ptr %10, align 4
  br label %179, !llvm.loop !17

210:                                              ; preds = %179
  %211 = load i32, ptr %10, align 4
  %212 = shl i32 %211, 3
  %213 = load ptr, ptr %5, align 8
  %214 = sext i32 %212 to i64
  %215 = getelementptr inbounds i8, ptr %213, i64 %214
  store ptr %215, ptr %5, align 8
  %216 = load i32, ptr %10, align 4
  %217 = shl i32 %216, 3
  %218 = load ptr, ptr %6, align 8
  %219 = sext i32 %217 to i64
  %220 = getelementptr inbounds i8, ptr %218, i64 %219
  store ptr %220, ptr %6, align 8
  br label %221

221:                                              ; preds = %210, %150
  br label %222

222:                                              ; preds = %232, %221
  %223 = load i32, ptr %11, align 4
  %224 = load i32, ptr %9, align 4
  %225 = icmp slt i32 %223, %224
  br i1 %225, label %226, label %235

226:                                              ; preds = %222
  %227 = load ptr, ptr %5, align 8
  %228 = getelementptr inbounds i8, ptr %227, i32 1
  store ptr %228, ptr %5, align 8
  %229 = load i8, ptr %227, align 1
  %230 = load ptr, ptr %6, align 8
  %231 = getelementptr inbounds i8, ptr %230, i32 1
  store ptr %231, ptr %6, align 8
  store i8 %229, ptr %230, align 1
  br label %232

232:                                              ; preds = %226
  %233 = load i32, ptr %11, align 4
  %234 = add nsw i32 %233, 1
  store i32 %234, ptr %11, align 4
  br label %222, !llvm.loop !18

235:                                              ; preds = %222
  %236 = load i32, ptr %7, align 4
  %237 = and i32 %236, 7
  store i32 %237, ptr %11, align 4
  %238 = load i32, ptr %11, align 4
  %239 = icmp sgt i32 %238, 0
  br i1 %239, label %240, label %267

240:                                              ; preds = %235
  %241 = load i8, ptr %14, align 1
  %242 = zext i8 %241 to i32
  %243 = load i32, ptr %11, align 4
  %244 = sub nsw i32 8, %243
  %245 = shl i32 %242, %244
  %246 = trunc i32 %245 to i8
  store i8 %246, ptr %16, align 1
  %247 = load ptr, ptr %6, align 8
  %248 = getelementptr inbounds i8, ptr %247, i64 0
  %249 = load i8, ptr %248, align 1
  store i8 %249, ptr %15, align 1
  %250 = load i8, ptr %15, align 1
  %251 = zext i8 %250 to i32
  %252 = load i8, ptr %16, align 1
  %253 = zext i8 %252 to i32
  %254 = xor i32 %253, -1
  %255 = and i32 %251, %254
  %256 = load ptr, ptr %5, align 8
  %257 = getelementptr inbounds i8, ptr %256, i64 0
  %258 = load i8, ptr %257, align 1
  %259 = zext i8 %258 to i32
  %260 = load i8, ptr %16, align 1
  %261 = zext i8 %260 to i32
  %262 = and i32 %259, %261
  %263 = or i32 %255, %262
  %264 = trunc i32 %263 to i8
  %265 = load ptr, ptr %6, align 8
  %266 = getelementptr inbounds i8, ptr %265, i64 0
  store i8 %264, ptr %266, align 1
  br label %267

267:                                              ; preds = %240, %235, %31, %25
  ret void
}