; Function Attrs: nofree norecurse nosync nounwind memory(readwrite, inaccessiblemem: none) uwtable
define hidden void @mlib_ImageCopy_bit_al(ptr noundef %0, ptr noundef %1, i32 noundef %2, i32 noundef %3) local_unnamed_addr #1 {
  %5 = icmp slt i32 %2, 1
  br i1 %5, label %91, label %6

6:                                                ; preds = %4
  %7 = sub nsw i32 8, %3
  %.not = icmp slt i32 %7, %2
  br i1 %.not, label %13, label %8

8:                                                ; preds = %6
  %9 = sub nsw i32 8, %2
  %10 = shl nuw nsw i32 255, %9
  %11 = and i32 %10, 255
  %12 = lshr i32 %11, %3
  br label %.sink.split

13:                                               ; preds = %6
  %14 = lshr i32 255, %3
  %15 = load i8, ptr %1, align 1
  %16 = zext i8 %15 to i32
  %17 = ashr i32 -256, %3
  %18 = and i32 %17, %16
  %19 = load i8, ptr %0, align 1
  %20 = zext i8 %19 to i32
  %21 = and i32 %14, %20
  %22 = or i32 %21, %18
  %23 = trunc nuw i32 %22 to i8
  store i8 %23, ptr %1, align 1
  %24 = add nsw i32 %2, -8
  %25 = add nsw i32 %24, %3
  %26 = ashr i32 %25, 3
  %.087104 = getelementptr i8, ptr %1, i64 1
  %.0105 = getelementptr i8, ptr %0, i64 1
  %27 = icmp sgt i32 %26, 0
  %28 = ptrtoint ptr %.087104 to i64
  %29 = and i64 %28, 7
  %30 = icmp ne i64 %29, 0
  %31 = and i1 %27, %30
  br i1 %31, label %.lr.ph, label %._crit_edge

.lr.ph:                                           ; preds = %13, %.lr.ph
  %.0108 = phi ptr [ %.0, %.lr.ph ], [ %.0105, %13 ]
  %.087107 = phi ptr [ %.087, %.lr.ph ], [ %.087104, %13 ]
  %.092106 = phi i32 [ %33, %.lr.ph ], [ 0, %13 ]
  %32 = load i8, ptr %.0108, align 1
  store i8 %32, ptr %.087107, align 1
  %33 = add nuw nsw i32 %.092106, 1
  %.087 = getelementptr inbounds i8, ptr %.087107, i64 1
  %.0 = getelementptr inbounds i8, ptr %.0108, i64 1
  %34 = icmp slt i32 %33, %26
  %35 = ptrtoint ptr %.087 to i64
  %36 = and i64 %35, 7
  %37 = icmp ne i64 %36, 0
  %38 = select i1 %34, i1 %37, i1 false
  br i1 %38, label %.lr.ph, label %._crit_edge, !llvm.loop !15

._crit_edge:                                      ; preds = %.lr.ph, %13
  %.092.lcssa = phi i32 [ 0, %13 ], [ %33, %.lr.ph ]
  %.087.lcssa = phi ptr [ %.087104, %13 ], [ %.087, %.lr.ph ]
  %.0.lcssa = phi ptr [ %.0105, %13 ], [ %.0, %.lr.ph ]
  %.lcssa = phi i64 [ %28, %13 ], [ %35, %.lr.ph ]
  %39 = ptrtoint ptr %.0.lcssa to i64
  %40 = xor i64 %.lcssa, %39
  %41 = and i64 %40, 7
  %42 = icmp eq i64 %41, 0
  br i1 %42, label %.preheader, label %51

.preheader:                                       ; preds = %._crit_edge
  %43 = add nsw i32 %26, -8
  %.not98120 = icmp sgt i32 %.092.lcssa, %43
  br i1 %.not98120, label %.loopexit, label %.lr.ph123.preheader

.lr.ph123.preheader:                              ; preds = %.preheader
  %44 = sub i32 %43, %.092.lcssa
  %45 = lshr i32 %44, 3
  %46 = add nuw nsw i32 %45, 1
  %wide.trip.count149 = zext nneg i32 %46 to i64
  br label %.lr.ph123

.lr.ph123:                                        ; preds = %.lr.ph123.preheader, %.lr.ph123
  %indvars.iv146 = phi i64 [ 0, %.lr.ph123.preheader ], [ %indvars.iv.next147, %.lr.ph123 ]
  %.193121 = phi i32 [ %.092.lcssa, %.lr.ph123.preheader ], [ %50, %.lr.ph123 ]
  %47 = getelementptr inbounds double, ptr %.0.lcssa, i64 %indvars.iv146
  %48 = load double, ptr %47, align 8
  %49 = getelementptr inbounds double, ptr %.087.lcssa, i64 %indvars.iv146
  store double %48, ptr %49, align 8
  %50 = add nuw nsw i32 %.193121, 8
  %indvars.iv.next147 = add nuw nsw i64 %indvars.iv146, 1
  %exitcond150 = icmp eq i64 %indvars.iv.next147, %wide.trip.count149
  br i1 %exitcond150, label %.loopexit, label %.lr.ph123, !llvm.loop !16

51:                                               ; preds = %._crit_edge
  %52 = and i64 %39, 7
  %53 = sub nsw i64 0, %52
  %54 = getelementptr inbounds i8, ptr %.0.lcssa, i64 %53
  %55 = add nsw i32 %26, -8
  %.not97112 = icmp sgt i32 %.092.lcssa, %55
  br i1 %.not97112, label %.loopexit, label %.lr.ph117

.lr.ph117:                                        ; preds = %51
  %56 = load i64, ptr %54, align 8
  %57 = trunc i64 %39 to i32
  %58 = shl i32 %57, 3
  %59 = and i32 %58, 56
  %60 = sub nuw nsw i32 64, %59
  %61 = zext nneg i32 %59 to i64
  %62 = zext nneg i32 %60 to i64
  %63 = sub i32 %55, %.092.lcssa
  %64 = lshr i32 %63, 3
  %65 = add nuw nsw i32 %64, 1
  %wide.trip.count = zext nneg i32 %65 to i64
  br label %66

66:                                               ; preds = %.lr.ph117, %66
  %indvars.iv = phi i64 [ 0, %.lr.ph117 ], [ %indvars.iv.next, %66 ]
  %.086115 = phi i64 [ %56, %.lr.ph117 ], [ %68, %66 ]
  %.294113 = phi i32 [ %.092.lcssa, %.lr.ph117 ], [ %73, %66 ]
  %indvars.iv.next = add nuw nsw i64 %indvars.iv, 1
  %67 = getelementptr inbounds i64, ptr %54, i64 %indvars.iv.next
  %68 = load i64, ptr %67, align 8
  %69 = shl i64 %.086115, %61
  %70 = lshr i64 %68, %62
  %71 = or i64 %70, %69
  %72 = getelementptr inbounds i64, ptr %.087.lcssa, i64 %indvars.iv
  store i64 %71, ptr %72, align 8
  %73 = add nuw nsw i32 %.294113, 8
  %exitcond = icmp eq i64 %indvars.iv.next, %wide.trip.count
  br i1 %exitcond, label %.loopexit, label %66, !llvm.loop !17

.loopexit:                                        ; preds = %66, %.lr.ph123, %51, %.preheader
  %.3 = phi i32 [ %.092.lcssa, %.preheader ], [ %.092.lcssa, %51 ], [ %50, %.lr.ph123 ], [ %73, %66 ]
  %.pn.in.in = phi i32 [ 0, %.preheader ], [ 0, %51 ], [ %46, %.lr.ph123 ], [ %65, %66 ]
  %.pn.in = shl i32 %.pn.in.in, 3
  %.pn = sext i32 %.pn.in to i64
  %.1 = getelementptr i8, ptr %.0.lcssa, i64 %.pn
  %.188 = getelementptr i8, ptr %.087.lcssa, i64 %.pn
  %74 = icmp slt i32 %.3, %26
  br i1 %74, label %.lr.ph130, label %._crit_edge131

.lr.ph130:                                        ; preds = %.loopexit, %.lr.ph130
  %.2128 = phi ptr [ %75, %.lr.ph130 ], [ %.1, %.loopexit ]
  %.289127 = phi ptr [ %77, %.lr.ph130 ], [ %.188, %.loopexit ]
  %.4126 = phi i32 [ %78, %.lr.ph130 ], [ %.3, %.loopexit ]
  %75 = getelementptr inbounds i8, ptr %.2128, i64 1
  %76 = load i8, ptr %.2128, align 1
  %77 = getelementptr inbounds i8, ptr %.289127, i64 1
  store i8 %76, ptr %.289127, align 1
  %78 = add nuw nsw i32 %.4126, 1
  %exitcond151.not = icmp eq i32 %78, %26
  br i1 %exitcond151.not, label %._crit_edge131, label %.lr.ph130, !llvm.loop !18

._crit_edge131:                                   ; preds = %.lr.ph130, %.loopexit
  %.289.lcssa = phi ptr [ %.188, %.loopexit ], [ %77, %.lr.ph130 ]
  %.2.lcssa = phi ptr [ %.1, %.loopexit ], [ %75, %.lr.ph130 ]
  %79 = and i32 %25, 7
  %.not100 = icmp eq i32 %79, 0
  br i1 %.not100, label %91, label %80

80:                                               ; preds = %._crit_edge131
  %81 = sub nuw nsw i32 8, %79
  %82 = shl nuw nsw i32 255, %81
  %83 = and i32 %82, 254
  br label %.sink.split

.sink.split:                                      ; preds = %8, %80
  %.sink166 = phi i32 [ %83, %80 ], [ %12, %8 ]
  %.2.lcssa.sink = phi ptr [ %.2.lcssa, %80 ], [ %0, %8 ]
  %.sink163 = phi i32 [ %82, %80 ], [ %12, %8 ]
  %.289.lcssa.sink = phi ptr [ %.289.lcssa, %80 ], [ %1, %8 ]
  %.sink.in = load i8, ptr %.289.lcssa.sink, align 1
  %.sink = zext i8 %.sink.in to i32
  %84 = xor i32 %.sink166, -1
  %85 = and i32 %.sink, %84
  %86 = load i8, ptr %.2.lcssa.sink, align 1
  %87 = zext i8 %86 to i32
  %88 = and i32 %.sink163, %87
  %89 = or i32 %88, %85
  %90 = trunc nuw i32 %89 to i8
  store i8 %90, ptr %.289.lcssa.sink, align 1
  br label %91

91:                                               ; preds = %.sink.split, %4, %._crit_edge131
  ret void
}